target datalayout = "e-m:e-p270:32:32-p271:32:32-p272:64:64-i64:64-i128:128-f80:128-n8:16:32:64-S128"
target triple = "x86_64-pc-linux-gnu"

%struct._GdkEventCrossing = type { i32, ptr, i8, ptr, i32, double, double, double, double, i32, i32, i32, i32 }

@_resize_wrap_dragging = internal global i32 0, align 4
@_resize_wrap_hovered = internal global ptr null, align 8

; Function Attrs: nounwind uwtable
define internal i32 @_resize_wrap_enter_leave(ptr noundef %0, ptr noundef %1, ptr noundef %2) #0 {
  %4 = alloca ptr, align 8
  %5 = alloca ptr, align 8
  %6 = alloca ptr, align 8
  store ptr %0, ptr %4, align 8, !tbaa !6
  store ptr %1, ptr %5, align 8, !tbaa !157
  store ptr %2, ptr %6, align 8, !tbaa !11
  %7 = load ptr, ptr %5, align 8, !tbaa !157
  %8 = getelementptr inbounds nuw %struct._GdkEventCrossing, ptr %7, i32 0, i32 0
  %9 = load i32, ptr %8, align 8, !tbaa !318
  %10 = icmp eq i32 %9, 10
  br i1 %10, label %19, label %11

11:                                               ; preds = %3
  %12 = load ptr, ptr %5, align 8, !tbaa !157
  %13 = getelementptr inbounds nuw %struct._GdkEventCrossing, ptr %12, i32 0, i32 10
  %14 = load i32, ptr %13, align 4, !tbaa !320
  %15 = icmp eq i32 %14, 2
  br i1 %15, label %19, label %16

16:                                               ; preds = %11
  %17 = load i32, ptr @_resize_wrap_dragging, align 4, !tbaa !17
  %18 = icmp ne i32 %17, 0
  br i1 %18, label %19, label %21

19:                                               ; preds = %16, %11, %3
  %20 = load ptr, ptr %4, align 8, !tbaa !6
  br label %22

21:                                               ; preds = %16
  br label %22

22:                                               ; preds = %21, %19
  %23 = phi ptr [ %20, %19 ], [ null, %21 ]
  store ptr %23, ptr @_resize_wrap_hovered, align 8, !tbaa !6
  %24 = load ptr, ptr %4, align 8, !tbaa !6
  call void @gtk_widget_queue_draw(ptr noundef %24)
  %25 = load ptr, ptr %5, align 8, !tbaa !157
  %26 = getelementptr inbounds nuw %struct._GdkEventCrossing, ptr %25, i32 0, i32 9
  %27 = load i32, ptr %26, align 8, !tbaa !321
  %28 = icmp eq i32 %27, 4
  br i1 %28, label %29, label %30

29:                                               ; preds = %22
  store i32 0, ptr @_resize_wrap_dragging, align 4, !tbaa !17
  br label %30

30:                                               ; preds = %29, %22
  %31 = load i32, ptr @_resize_wrap_dragging, align 4, !tbaa !17
  %32 = icmp ne i32 %31, 0
  br i1 %32, label %34, label %33

33:                                               ; preds = %30
  call void @dt_control_change_cursor(i32 noundef 68)
  br label %34

34:                                               ; preds = %33, %30
  ret i32 0
}