; Function Attrs: nounwind uwtable
define internal noundef i32 @_resize_wrap_enter_leave(ptr noundef %0, ptr noundef readonly captures(none) %1, ptr readnone captures(none) %2) #0 {
  %4 = load i32, ptr %1, align 8, !tbaa !245
  %5 = icmp eq i32 %4, 10
  br i1 %5, label %10, label %6

6:                                                ; preds = %3
  %7 = getelementptr inbounds nuw i8, ptr %1, i64 76
  %8 = load i32, ptr %7, align 4, !tbaa !247
  %9 = icmp eq i32 %8, 2
  %.b = load i1, ptr @_resize_wrap_dragging, align 4
  %or.cond = select i1 %9, i1 true, i1 %.b
  br i1 %or.cond, label %10, label %11

10:                                               ; preds = %6, %3
  br label %11

11:                                               ; preds = %6, %10
  %12 = phi ptr [ %0, %10 ], [ null, %6 ]
  store ptr %12, ptr @_resize_wrap_hovered, align 8, !tbaa !76
  tail call void @gtk_widget_queue_draw(ptr noundef %0) #18
  %13 = getelementptr inbounds nuw i8, ptr %1, i64 72
  %14 = load i32, ptr %13, align 8, !tbaa !248
  %15 = icmp eq i32 %14, 4
  br i1 %15, label %.thread, label %16

.thread:                                          ; preds = %11
  store i1 false, ptr @_resize_wrap_dragging, align 4
  br label %17

16:                                               ; preds = %11
  %.b6.pr = load i1, ptr @_resize_wrap_dragging, align 4
  br i1 %.b6.pr, label %18, label %17

17:                                               ; preds = %.thread, %16
  tail call void @dt_control_change_cursor(i32 noundef 68) #18
  br label %18

18:                                               ; preds = %17, %16
  ret i32 0
}